Certificate:
    Data:
        Version: 3 (0x2)
        Serial Number:
            9d:9b:73:77:f6:77:ec:8b:e8:5d:ec:74:bf:5e:25
        Signature Algorithm: sha256WithRSAEncryption
        Issuer: CN=univpn-tunneling
        Validity
            Not Before: Feb 20 16:46:12 2024 GMT
            Not After : May 25 16:46:12 2026 GMT
        Subject: CN=univpn-tunneling
        Subject Public Key Info:
            Public Key Algorithm: rsaEncryption
                Public-Key: (2048 bit)
                Modulus:
                    00:b4:86:1f:70:7d:a4:15:13:84:ed:4b:f2:89:d0:
                    08:6c:34:bb:45:09:29:ff:82:d3:63:ce:5d:86:4e:
                    95:b4:e7:e6:83:c5:ae:be:99:cd:52:f2:b2:c8:38:
                    3b:69:2d:45:2d:c6:4d:b9:ec:36:ee:9e:fe:d6:c9:
                    2d:cf:d2:a0:07:73:77:5e:13:f8:f3:2e:09:74:65:
                    1b:45:47:c7:94:be:2f:77:a6:38:11:62:ed:6e:9f:
                    83:5b:c4:aa:68:52:89:bd:11:12:59:ce:98:d7:71:
                    69:94:e2:6f:b6:27:32:58:83:be:d2:b2:95:8e:dc:
                    08:2e:37:07:0a:0d:d6:29:21:13:d8:f2:8f:0e:23:
                    b8:23:83:8d:a2:0e:31:28:fd:a5:77:2b:dc:30:9e:
                    55:5d:1f:ac:9d:20:5a:14:87:b0:aa:82:b4:f7:66:
                    f6:de:c9:ce:0b:6d:18:ea:18:17:f2:6b:1f:12:1e:
                    62:41:76:7e:2e:da:7e:ee:ce:f0:08:b4:56:12:e0:
                    89:a6:52:28:5a:42:2b:e7:3f:34:cd:c8:78:77:ba:
                    fc:a5:65:ac:9f:db:98:89:c5:07:67:94:18:11:e5:
                    2a:83:b8:52:48:0d:1d:1e:8f:2c:52:e4:cf:49:b3:
                    4e:49:68:87:b3:08:19:52:e7:48:a1:12:dc:f2:c6:
                    a4:17
                Exponent: 65537 (0x10001)
        X509v3 extensions:
            X509v3 Basic Constraints: 
                CA:FALSE
            X509v3 Subject Key Identifier: 
                0F:51:4F:0C:60:05:43:6C:EA:09:A0:93:2B:01:75:DF:2E:B0:7F:71
            X509v3 Authority Key Identifier: 
                keyid:92:4B:CD:B9:93:3B:BB:AE:BA:0B:78:0A:86:DA:52:94:23:7A:11:15
                DirName:/CN=univpn-tunneling
                serial:34:71:45:8E:28:BA:0E:02:19:5A:5F:B7:37:AB:78:28:03:4F:49:AA
            X509v3 Extended Key Usage: 
                TLS Web Server Authentication
            X509v3 Key Usage: 
                Digital Signature, Key Encipherment
            X509v3 Subject Alternative Name: 
                DNS:univpn-tunneling
    Signature Algorithm: sha256WithRSAEncryption
    Signature Value:
        8f:aa:f8:9c:ab:c3:32:7c:b5:2d:d0:9f:ba:7d:f7:9a:06:42:
        c2:89:a3:58:16:0e:e5:f7:02:bd:7b:bd:ce:d9:d0:04:e3:90:
        98:4f:5c:28:1b:27:a0:6d:79:e2:0a:7e:cf:ed:a7:9a:4f:6f:
        9f:30:89:98:0d:ed:fb:f3:e8:0a:15:1a:35:16:ed:c4:66:58:
        fa:42:ba:ce:dd:ac:53:9e:42:40:80:14:1e:24:52:74:8d:a0:
        3f:b4:a1:ec:cb:e6:71:de:0d:69:e0:23:b2:7d:f1:c8:9e:7b:
        d3:3f:6b:c5:69:7d:ac:f4:f8:74:5c:42:1f:6f:61:5d:d5:4e:
        f0:2b:4b:e1:12:1c:12:fa:b7:b2:f9:ee:4d:d8:f3:03:91:8f:
        07:e6:11:b4:f9:2f:5f:3c:4a:0e:8d:f7:f0:c5:5f:e6:c7:ec:
        9b:71:b5:9e:0d:be:eb:c3:5d:81:74:7d:bf:e9:cd:40:92:24:
        5c:61:41:08:af:02:92:96:b5:bd:d6:fd:b8:4d:86:dc:2c:72:
        97:72:71:3f:91:c8:2f:f1:42:98:53:c5:ec:9d:98:32:21:f8:
        c6:20:44:86:db:71:d5:7a:68:ba:a8:3a:32:70:19:e5:e7:50:
        da:6f:ad:f9:05:77:20:ae:38:3f:f5:2e:36:3b:de:cb:1e:47:
        02:fd:fa:e2
-----BEGIN CERTIFICATE-----
MIIDhTCCAm2gAwIBAgIQAJ2bc3f2d+yL6F3sdL9eJTANBgkqhkiG9w0BAQsFADAb
MRkwFwYDVQQDDBB1bml2cG4tdHVubmVsaW5nMB4XDTI0MDIyMDE2NDYxMloXDTI2
MDUyNTE2NDYxMlowGzEZMBcGA1UEAwwQdW5pdnBuLXR1bm5lbGluZzCCASIwDQYJ
KoZIhvcNAQEBBQADggEPADCCAQoCggEBALSGH3B9pBUThO1L8onQCGw0u0UJKf+C
02POXYZOlbTn5oPFrr6ZzVLyssg4O2ktRS3GTbnsNu6e/tbJLc/SoAdzd14T+PMu
CXRlG0VHx5S+L3emOBFi7W6fg1vEqmhSib0RElnOmNdxaZTib7YnMliDvtKylY7c
CC43BwoN1ikhE9jyjw4juCODjaIOMSj9pXcr3DCeVV0frJ0gWhSHsKqCtPdm9t7J
zgttGOoYF/JrHxIeYkF2fi7afu7O8Ai0VhLgiaZSKFpCK+c/NM3IeHe6/KVlrJ/b
mInFB2eUGBHlKoO4UkgNHR6PLFLkz0mzTkloh7MIGVLnSKES3PLGpBcCAwEAAaOB
xDCBwTAJBgNVHRMEAjAAMB0GA1UdDgQWBBQPUU8MYAVDbOoJoJMrAXXfLrB/cTBW
BgNVHSMETzBNgBSSS825kzu7rroLeAqG2lKUI3oRFaEfpB0wGzEZMBcGA1UEAwwQ
dW5pdnBuLXR1bm5lbGluZ4IUNHFFjii6DgIZWl+3N6t4KANPSaowEwYDVR0lBAww
CgYIKwYBBQUHAwEwCwYDVR0PBAQDAgWgMBsGA1UdEQQUMBKCEHVuaXZwbi10dW5u
ZWxpbmcwDQYJKoZIhvcNAQELBQADggEBAI+q+JyrwzJ8tS3Qn7p995oGQsKJo1gW
DuX3Ar17vc7Z0ATjkJhPXCgbJ6BteeIKfs/tp5pPb58wiZgN7fvz6AoVGjUW7cRm
WPpCus7drFOeQkCAFB4kUnSNoD+0oezL5nHeDWngI7J98ciee9M/a8Vpfaz0+HRc
Qh9vYV3VTvArS+ESHBL6t7L57k3Y8wORjwfmEbT5L188Sg6N9/DFX+bH7JtxtZ4N
vuvDXYF0fb/pzUCSJFxhQQivApKWtb3W/bhNhtwscpdycT+RyC/xQphTxeydmDIh
+MYgRIbbcdV6aLqoOjJwGeXnUNpvrfkFdyCuOD/1LjY73sseRwL9+uI=
-----END CERTIFICATE-----
